target datalayout = "e-m:e-p270:32:32-p271:32:32-p272:64:64-i64:64-i128:128-f80:128-n8:16:32:64-S128"
target triple = "x86_64-pc-linux-gnu"

; Function Attrs: nounwind uwtable
define internal double @default_multirange_selectivity(i32 noundef %0) #0 {
  %2 = alloca double, align 8
  %3 = alloca i32, align 4
  store i32 %0, ptr %3, align 4
  %4 = load i32, ptr %3, align 4
  switch i32 %4, label %9 [
    i32 2868, label %5
    i32 2867, label %5
    i32 2866, label %5
    i32 4539, label %6
    i32 4540, label %6
    i32 2870, label %6
    i32 2871, label %6
    i32 2873, label %6
    i32 2874, label %6
    i32 2869, label %7
    i32 2872, label %7
    i32 2862, label %8
    i32 2863, label %8
    i32 2865, label %8
    i32 2864, label %8
    i32 4396, label %8
    i32 4397, label %8
    i32 4395, label %8
    i32 4399, label %8
    i32 4400, label %8
    i32 4398, label %8
    i32 2876, label %8
    i32 2875, label %8
    i32 2877, label %8
    i32 4035, label %8
    i32 3585, label %8
    i32 4142, label %8
  ]

5:                                                ; preds = %1, %1, %1
  store double 1.000000e-02, ptr %2, align 8
  br label %10

6:                                                ; preds = %1, %1, %1, %1, %1, %1
  store double 5.000000e-03, ptr %2, align 8
  br label %10

7:                                                ; preds = %1, %1
  store double 5.000000e-03, ptr %2, align 8
  br label %10

8:                                                ; preds = %1, %1, %1, %1, %1, %1, %1, %1, %1, %1, %1, %1, %1, %1, %1, %1
  store double 0x3FD5555555555555, ptr %2, align 8
  br label %10

9:                                                ; preds = %1
  store double 1.000000e-02, ptr %2, align 8
  br label %10

10:                                               ; preds = %9, %8, %7, %6, %5
  %11 = load double, ptr %2, align 8
  ret double %11
}